target datalayout = "e-m:e-p270:32:32-p271:32:32-p272:64:64-i64:64-i128:128-f80:128-n8:16:32:64-S128"
target triple = "x86_64-pc-linux-gnu"

%"class.cv::Matx.18" = type { [4 x double] }

; Function Attrs: inlinehint mustprogress nounwind uwtable
define internal noundef double @_ZN2cvL13saturate_castIdEET_d(double noundef %0) #9 {
  %2 = alloca double, align 8
  store double %0, ptr %2, align 8, !tbaa !18
  %3 = load double, ptr %2, align 8, !tbaa !18
  ret double %3
}

; Function Attrs: inlinehint mustprogress nounwind uwtable
define internal noundef double @_ZN2cvL9normL2SqrIddEET0_PKT_i(ptr noundef %0, i32 noundef %1) #9 {
  %3 = alloca ptr, align 8
  %4 = alloca i32, align 4
  %5 = alloca double, align 8
  %6 = alloca i32, align 4
  %7 = alloca double, align 8
  store ptr %0, ptr %3, align 8, !tbaa !133
  store i32 %1, ptr %4, align 4, !tbaa !8
  call void @llvm.lifetime.start.p0(i64 8, ptr %5) #3
  store double 0.000000e+00, ptr %5, align 8, !tbaa !18
  call void @llvm.lifetime.start.p0(i64 4, ptr %6) #3
  store i32 0, ptr %6, align 4, !tbaa !8
  br label %8

8:                                                ; preds = %22, %2
  %9 = load i32, ptr %6, align 4, !tbaa !8
  %10 = load i32, ptr %4, align 4, !tbaa !8
  %11 = icmp slt i32 %9, %10
  br i1 %11, label %12, label %25

12:                                               ; preds = %8
  call void @llvm.lifetime.start.p0(i64 8, ptr %7) #3
  %13 = load ptr, ptr %3, align 8, !tbaa !133
  %14 = load i32, ptr %6, align 4, !tbaa !8
  %15 = sext i32 %14 to i64
  %16 = getelementptr inbounds double, ptr %13, i64 %15
  %17 = load double, ptr %16, align 8, !tbaa !18
  store double %17, ptr %7, align 8, !tbaa !18
  %18 = load double, ptr %7, align 8, !tbaa !18
  %19 = load double, ptr %7, align 8, !tbaa !18
  %20 = load double, ptr %5, align 8, !tbaa !18
  %21 = call double @llvm.fmuladd.f64(double %18, double %19, double %20)
  store double %21, ptr %5, align 8, !tbaa !18
  call void @llvm.lifetime.end.p0(i64 8, ptr %7) #3
  br label %22

22:                                               ; preds = %12
  %23 = load i32, ptr %6, align 4, !tbaa !8
  %24 = add nsw i32 %23, 1
  store i32 %24, ptr %6, align 4, !tbaa !8
  br label %8, !llvm.loop !382

25:                                               ; preds = %8
  %26 = load double, ptr %5, align 8, !tbaa !18
  call void @llvm.lifetime.end.p0(i64 4, ptr %6) #3
  call void @llvm.lifetime.end.p0(i64 8, ptr %5) #3
  ret double %26
}

; Function Attrs: inlinehint mustprogress nounwind uwtable
define internal noundef nonnull align 8 dereferenceable(32) ptr @_ZN2cvmLIdLi4EEERNS_3VecIT_XT0_EEES4_d(ptr noundef nonnull align 8 dereferenceable(32) %0, double noundef %1) #9 {
  %3 = alloca ptr, align 8
  %4 = alloca double, align 8
  %5 = alloca i32, align 4
  store ptr %0, ptr %3, align 8, !tbaa !111
  store double %1, ptr %4, align 8, !tbaa !18
  call void @llvm.lifetime.start.p0(i64 4, ptr %5) #3
  store i32 0, ptr %5, align 4, !tbaa !8
  br label %6

6:                                                ; preds = %21, %2
  %7 = load i32, ptr %5, align 4, !tbaa !8
  %8 = icmp slt i32 %7, 4
  br i1 %8, label %10, label %9

9:                                                ; preds = %6
  call void @llvm.lifetime.end.p0(i64 4, ptr %5) #3
  br label %24

10:                                               ; preds = %6
  %11 = load ptr, ptr %3, align 8, !tbaa !111
  %12 = load i32, ptr %5, align 4, !tbaa !8
  %13 = call noundef nonnull align 8 dereferenceable(8) ptr @_ZN2cv3VecIdLi4EEixEi(ptr noundef nonnull align 8 dereferenceable(32) %11, i32 noundef %12)
  %14 = load double, ptr %13, align 8, !tbaa !18
  %15 = load double, ptr %4, align 8, !tbaa !18
  %16 = fmul double %14, %15
  %17 = call noundef double @_ZN2cvL13saturate_castIdEET_d(double noundef %16)
  %18 = load ptr, ptr %3, align 8, !tbaa !111
  %19 = load i32, ptr %5, align 4, !tbaa !8
  %20 = call noundef nonnull align 8 dereferenceable(8) ptr @_ZN2cv3VecIdLi4EEixEi(ptr noundef nonnull align 8 dereferenceable(32) %18, i32 noundef %19)
  store double %17, ptr %20, align 8, !tbaa !18
  br label %21

21:                                               ; preds = %10
  %22 = load i32, ptr %5, align 4, !tbaa !8
  %23 = add nsw i32 %22, 1
  store i32 %23, ptr %5, align 4, !tbaa !8
  br label %6, !llvm.loop !150

24:                                               ; preds = %9
  %25 = load ptr, ptr %3, align 8, !tbaa !111
  ret ptr %25
}

; Function Attrs: inlinehint mustprogress nounwind uwtable
define internal noundef double @_ZN2cvL4normIdLi4ELi1EEEdRKNS_4MatxIT_XT0_EXT1_EEE(ptr noundef nonnull align 8 dereferenceable(32) %0) #9 {
  %2 = alloca ptr, align 8
  store ptr %0, ptr %2, align 8, !tbaa !151
  %3 = load ptr, ptr %2, align 8, !tbaa !151
  %4 = getelementptr inbounds nuw %"class.cv::Matx.18", ptr %3, i32 0, i32 0
  %5 = getelementptr inbounds [4 x double], ptr %4, i64 0, i64 0
  %6 = call noundef double @_ZN2cvL9normL2SqrIddEET0_PKT_i(ptr noundef %5, i32 noundef 4)
  %7 = call double @sqrt(double noundef %6) #3, !tbaa !8
  ret double %7
}

; Function Attrs: inlinehint mustprogress nounwind uwtable
define linkonce_odr hidden noundef nonnull align 8 dereferenceable(8) ptr @_ZN2cv3VecIdLi4EEixEi(ptr noundef nonnull align 8 dereferenceable(32) %0, i32 noundef %1) #9 comdat align 2 {
  %3 = alloca ptr, align 8
  %4 = alloca i32, align 4
  store ptr %0, ptr %3, align 8, !tbaa !111
  store i32 %1, ptr %4, align 4, !tbaa !8
  %5 = load ptr, ptr %3, align 8
  %6 = getelementptr inbounds nuw %"class.cv::Matx.18", ptr %5, i32 0, i32 0
  %7 = load i32, ptr %4, align 4, !tbaa !8
  %8 = sext i32 %7 to i64
  %9 = getelementptr inbounds [4 x double], ptr %6, i64 0, i64 %8
  ret ptr %9
}

; Function Attrs: mustprogress uwtable
define hidden void @_ZN2cv12ppf_match_3d11getRandQuatERNS_3VecIdLi4EEE(ptr noundef nonnull align 8 dereferenceable(32) %0) #4 {
  %2 = alloca ptr, align 8
  store ptr %0, ptr %2, align 8, !tbaa !111
  %3 = call i32 @rand() #3
  %4 = sitofp i32 %3 to float
  %5 = fdiv float %4, 0x41E0000000000000
  %6 = fpext float %5 to double
  %7 = load ptr, ptr %2, align 8, !tbaa !111
  %8 = call noundef nonnull align 8 dereferenceable(8) ptr @_ZN2cv3VecIdLi4EEixEi(ptr noundef nonnull align 8 dereferenceable(32) %7, i32 noundef 0)
  store double %6, ptr %8, align 8, !tbaa !18
  %9 = call i32 @rand() #3
  %10 = sitofp i32 %9 to float
  %11 = fdiv float %10, 0x41E0000000000000
  %12 = fpext float %11 to double
  %13 = load ptr, ptr %2, align 8, !tbaa !111
  %14 = call noundef nonnull align 8 dereferenceable(8) ptr @_ZN2cv3VecIdLi4EEixEi(ptr noundef nonnull align 8 dereferenceable(32) %13, i32 noundef 1)
  store double %12, ptr %14, align 8, !tbaa !18
  %15 = call i32 @rand() #3
  %16 = sitofp i32 %15 to float
  %17 = fdiv float %16, 0x41E0000000000000
  %18 = fpext float %17 to double
  %19 = load ptr, ptr %2, align 8, !tbaa !111
  %20 = call noundef nonnull align 8 dereferenceable(8) ptr @_ZN2cv3VecIdLi4EEixEi(ptr noundef nonnull align 8 dereferenceable(32) %19, i32 noundef 2)
  store double %18, ptr %20, align 8, !tbaa !18
  %21 = call i32 @rand() #3
  %22 = sitofp i32 %21 to float
  %23 = fdiv float %22, 0x41E0000000000000
  %24 = fpext float %23 to double
  %25 = load ptr, ptr %2, align 8, !tbaa !111
  %26 = call noundef nonnull align 8 dereferenceable(8) ptr @_ZN2cv3VecIdLi4EEixEi(ptr noundef nonnull align 8 dereferenceable(32) %25, i32 noundef 3)
  store double %24, ptr %26, align 8, !tbaa !18
  %27 = load ptr, ptr %2, align 8, !tbaa !111
  %28 = call noundef double @_ZN2cvL4normIdLi4ELi1EEEdRKNS_4MatxIT_XT0_EXT1_EEE(ptr noundef nonnull align 8 dereferenceable(32) %27)
  %29 = fdiv double 1.000000e+00, %28
  %30 = load ptr, ptr %2, align 8, !tbaa !111
  %31 = call noundef nonnull align 8 dereferenceable(32) ptr @_ZN2cvmLIdLi4EEERNS_3VecIT_XT0_EEES4_d(ptr noundef nonnull align 8 dereferenceable(32) %30, double noundef %29)
  %32 = load ptr, ptr %2, align 8, !tbaa !111
  %33 = call noundef nonnull align 8 dereferenceable(8) ptr @_ZN2cv3VecIdLi4EEixEi(ptr noundef nonnull align 8 dereferenceable(32) %32, i32 noundef 0)
  %34 = load double, ptr %33, align 8, !tbaa !18
  %35 = call double @llvm.fabs.f64(double %34)
  %36 = load ptr, ptr %2, align 8, !tbaa !111
  %37 = call noundef nonnull align 8 dereferenceable(8) ptr @_ZN2cv3VecIdLi4EEixEi(ptr noundef nonnull align 8 dereferenceable(32) %36, i32 noundef 0)
  store double %35, ptr %37, align 8, !tbaa !18
  ret void
}