; Function Attrs: mustprogress nounwind uwtable
define hidden void @_ZN2cv12ppf_match_3d11getRandQuatERNS_3VecIdLi4EEE(ptr noundef nonnull align 8 captures(none) dereferenceable(32) initializes((0, 32)) %0) local_unnamed_addr #7 {
  %2 = tail call i32 @rand() #36
  %3 = sitofp i32 %2 to float
  %4 = fmul float %3, 0x3E00000000000000
  %5 = fpext float %4 to double
  store double %5, ptr %0, align 8, !tbaa !174
  %6 = tail call i32 @rand() #36
  %7 = sitofp i32 %6 to float
  %8 = fmul float %7, 0x3E00000000000000
  %9 = fpext float %8 to double
  %10 = getelementptr inbounds nuw i8, ptr %0, i64 8
  store double %9, ptr %10, align 8, !tbaa !174
  %11 = tail call i32 @rand() #36
  %12 = sitofp i32 %11 to float
  %13 = fmul float %12, 0x3E00000000000000
  %14 = fpext float %13 to double
  %15 = getelementptr inbounds nuw i8, ptr %0, i64 16
  store double %14, ptr %15, align 8, !tbaa !174
  %16 = tail call i32 @rand() #36
  %17 = sitofp i32 %16 to float
  %18 = fmul float %17, 0x3E00000000000000
  %19 = fpext float %18 to double
  %20 = getelementptr inbounds nuw i8, ptr %0, i64 24
  store double %19, ptr %20, align 8, !tbaa !174
  br label %21

21:                                               ; preds = %21, %1
  %indvars.iv.i.i = phi i64 [ 0, %1 ], [ %indvars.iv.next.i.i, %21 ]
  %.010.i.i = phi double [ 0.000000e+00, %1 ], [ %24, %21 ]
  %22 = getelementptr inbounds nuw double, ptr %0, i64 %indvars.iv.i.i
  %23 = load double, ptr %22, align 8, !tbaa !174
  %24 = tail call double @llvm.fmuladd.f64(double %23, double %23, double %.010.i.i)
  %indvars.iv.next.i.i = add nuw nsw i64 %indvars.iv.i.i, 1
  %exitcond.not.i.i = icmp eq i64 %indvars.iv.next.i.i, 4
  br i1 %exitcond.not.i.i, label %_ZN2cvL4normIdLi4ELi1EEEdRKNS_4MatxIT_XT0_EXT1_EEE.exit, label %21, !llvm.loop !259

_ZN2cvL4normIdLi4ELi1EEEdRKNS_4MatxIT_XT0_EXT1_EEE.exit: ; preds = %21
  %25 = tail call noundef double @sqrt(double noundef %24) #36, !tbaa !109
  %26 = fdiv double 1.000000e+00, %25
  br label %27

27:                                               ; preds = %27, %_ZN2cvL4normIdLi4ELi1EEEdRKNS_4MatxIT_XT0_EXT1_EEE.exit
  %indvars.iv.i = phi i64 [ 0, %_ZN2cvL4normIdLi4ELi1EEEdRKNS_4MatxIT_XT0_EXT1_EEE.exit ], [ %indvars.iv.next.i, %27 ]
  %28 = getelementptr inbounds nuw [4 x double], ptr %0, i64 0, i64 %indvars.iv.i
  %29 = load double, ptr %28, align 8, !tbaa !174
  %30 = fmul double %26, %29
  store double %30, ptr %28, align 8, !tbaa !174
  %indvars.iv.next.i = add nuw nsw i64 %indvars.iv.i, 1
  %exitcond.not.i = icmp eq i64 %indvars.iv.next.i, 4
  br i1 %exitcond.not.i, label %_ZN2cvmLIdLi4EEERNS_3VecIT_XT0_EEES4_d.exit, label %27, !llvm.loop !278

_ZN2cvmLIdLi4EEERNS_3VecIT_XT0_EEES4_d.exit:      ; preds = %27
  %31 = load double, ptr %0, align 8, !tbaa !174
  %32 = tail call double @llvm.fabs.f64(double %31)
  store double %32, ptr %0, align 8, !tbaa !174
  ret void
}